"File: HT66FB550_IO.c  Assembler  Version HGASM0202      Page 1


   1  0000              ; Generated by holtek-gcc v3.12, Sun May 03 22:35:08 2015
   2  0000              ; 
   3  0000              ; Configuration:
   4  0000              ;       without long instruction
   5  0000              ;       Single ROM, Multi-RAM
   6  0000              ;       bits_per_rom_unit:16
   7  0000              ;       with mp1
   8  0000              ;       with tbhp, address(0x9)
   9  0000              ;          Use tabrd-const
  10  0000              ;       
  11  0000              ;       
  12  0000              ; use 'tabrdc' instead of 'tabrd'
  13  0000              ;       
  14  0000              
  15  0000              #pragma translator "holtek-gcc 4.6.4" "3.12" "build 20130711"
  16  0000              ; Rebuild 113
  17  0000              
  18  0000              ir equ [2]
  19  0000              mp equ [3]
  20  0000              sbp equ [1]
  21  0000              acc equ [5]
  22  0000              bp equ [4]
  23  0000              tblp equ [7]
  24  0000              tbhp equ [9]
  25  0000              status equ [10]
  26  0000              c equ [10].0
  27  0000              ac equ [10].1
  28  0000              z equ [10].2
  29  0000              ov equ [10].3
  30  0000              intc equ [11]
  31  0000              
  32  0000              extern ra:byte
  33  0000              extern rb:byte
  34  0000              extern rc:byte
  35  0000              extern rd:byte
  36  0000              extern re:byte
  37  0000              extern rf:byte
  38  0000              extern rg:byte
  39  0000              extern rh:byte
  40  0000              extern _Crom2Prom:near
  41  0000              extern _Crom2PromNext:near
  42  0000              
  43  0000              RAMBANK 0 @HCCINIT, @HCCINIT0
  44  0000              @HCCINIT	.section 'data'
  45  0000              @HCCINIT0	.section 'data'
  46  0000              
  47  0000              #pragma debug scope 1 1
  48  0000              	extern __DELAY3:near
  49  0000              	extern __DELAYX3:near
  50  0000              	extern __DELAYX6:near
  51  0000              	extern __DELAYY5:near
  52  0000              	extern __DELAYY3:near
  53  0000              	extern _builtin_holtek_delay_2:byte
  54  0000              public _HT66FB550_IO_DIR
  55  0000              #pragma debug scope 2 1

  32  0000              #line 32 "C:\Users\james\Google 雲端硬碟\自製版子\holtek\GitHub\HT_USB_Project\HT66FB550_USB_Common\HT66FB550_IO.c"
  32  0000              _HT66FB550_IO_DIR .section 'code'
  32  0000              _HT66FB550_IO_DIR proc
"File: HT66FB550_IO.c  Assembler  Version HGASM0202      Page 2

  32  0000              public _HT66FB550_IO_DIR_2
  32  0000  0004[           local _HT66FB550_IO_DIR_2 db 4 dup(?)	; 2,2
            00
            ]
  32  0000  0080     E  	mov ra,a
  32  0001              #pragma debug variable 7 2 _HT66FB550_IO_DIR_2+2 "port"
  32  0001              #pragma debug variable 7 2 _HT66FB550_IO_DIR_2+0 "pin"
  32  0001              #pragma debug variable 7 2 _HT66FB550_IO_DIR_2+1 "direction"
  32  0001              #pragma debug variable 7 2 _HT66FB550_IO_DIR_2+3 "filter"
  34  0001              #line 34 "C:\Users\james\Google 雲端硬碟\自製版子\holtek\GitHub\HT_USB_Project\HT66FB550_USB_Common\HT66FB550_IO.c"
  34  0001  0F01        	mov a,1
  34  0002  0080     E  	mov rb,a
  34  0003  1F00     E  	clr rc
  34  0004  1400     R  	inca _HT66FB550_IO_DIR_2[0]
  34  0005  2800     R  	jmp _LI1
  34  0006              _LI2:
  34  0006  340A        	clr c
  34  0007  1A80     E  	rlc rb
  34  0008  1A80     E  	rlc rc
  34  0009              _LI1:
  34  0009  1785        	sdz acc
  34  000A  2800     R  	jmp _LI2
  34  000B  0700     E  	mov a,rb
  34  000C  0080     R  	mov _HT66FB550_IO_DIR_2[3],a
  35  000D              #line 35 "C:\Users\james\Google 雲端硬碟\自製版子\holtek\GitHub\HT_USB_Project\HT66FB550_USB_Common\HT66FB550_IO.c"
  35  000D  0700     E  	mov a,ra
  35  000E  0A00        	sub a,0
  35  000F  3D0A        	sz z
  35  0010  2800     R  	jmp _L3
  35  0011  0A01        	sub a,(1)-(0)
  35  0012  3D0A        	sz z
  35  0013  2800     R  	jmp _L4
  35  0014              #line 35 "C:\Users\james\Google 雲端硬碟\自製版子\holtek\GitHub\HT_USB_Project\HT66FB550_USB_Common\HT66FB550_IO.c"
  35  0014  0700     E  	mov a,ra
  35  0015  0A02        	sub a,2
  35  0016  3D0A        	sz z
  35  0017  2800     R  	jmp _L5
  35  0018  0A01        	sub a,(3)-(2)
  35  0019  3D0A        	sz z
  35  001A  2800     R  	jmp _L6
  35  001B  0700     E  	mov a,ra
  35  001C  0A04        	sub a,4
  35  001D  390A        	snz z
  35  001E  2800     R  	jmp _L1
  35  001F  2800     R  	jmp _L29
  35  0020              _L3:
  44  0020              #line 44 "C:\Users\james\Google 雲端硬碟\自製版子\holtek\GitHub\HT_USB_Project\HT66FB550_USB_Common\HT66FB550_IO.c"
  44  0020  0F01        	mov a,1
  44  0021  0080     E  	mov ra,a
  44  0022  1080     R  	sz _HT66FB550_IO_DIR_2[3]
  44  0023  2800     R  	jmp _LI3
  44  0024  2800     R  	jmp _L8
  44  0025              _LI3:
  44  0025  1F00     E  	clr ra
  44  0026              _L8:
  44  0026  0700     R  	mov a,_port_A_config[0]
  44  0027  0680     E  	andm a,ra
  45  0028              #line 45 "C:\Users\james\Google 雲端硬碟\自製版子\holtek\GitHub\HT_USB_Project\HT66FB550_USB_Common\HT66FB550_IO.c"
  45  0028  0700     R  	mov a,_HT66FB550_IO_DIR_2[1]
  45  0029  0680     E  	andm a,rb
"File: HT66FB550_IO.c  Assembler  Version HGASM0202      Page 3

  45  002A  0700     E  	mov a,ra
  45  002B  0580     E  	orm a,rb
  45  002C  0700     E  	mov a,rb
  45  002D  0080     R  	mov _port_A_config[0],a
  48  002E              #line 48 "C:\Users\james\Google 雲端硬碟\自製版子\holtek\GitHub\HT_USB_Project\HT66FB550_USB_Common\HT66FB550_IO.c"
  48  002E  0700     E  	mov a,rb
  48  002F  009B        	mov [27],a
  49  0030              #line 49 "C:\Users\james\Google 雲端硬碟\自製版子\holtek\GitHub\HT_USB_Project\HT66FB550_USB_Common\HT66FB550_IO.c"
  49  0030  2800     R  	jmp _L1
  49  0031              _L4:
  57  0031              #line 57 "C:\Users\james\Google 雲端硬碟\自製版子\holtek\GitHub\HT_USB_Project\HT66FB550_USB_Common\HT66FB550_IO.c"
  57  0031  0F01        	mov a,1
  57  0032  0080     E  	mov ra,a
  57  0033  1080     R  	sz _HT66FB550_IO_DIR_2[3]
  57  0034  2800     R  	jmp _LI4
  57  0035  2800     R  	jmp _L9
  57  0036              _LI4:
  57  0036  1F00     E  	clr ra
  57  0037              _L9:
  57  0037  0700     R  	mov a,_port_B_config[0]
  57  0038  0680     E  	andm a,ra
  58  0039              #line 58 "C:\Users\james\Google 雲端硬碟\自製版子\holtek\GitHub\HT_USB_Project\HT66FB550_USB_Common\HT66FB550_IO.c"
  58  0039  0700     R  	mov a,_HT66FB550_IO_DIR_2[1]
  58  003A  0680     E  	andm a,rb
  58  003B  0700     E  	mov a,ra
  58  003C  0580     E  	orm a,rb
  58  003D  0700     E  	mov a,rb
  58  003E  0080     R  	mov _port_B_config[0],a
  61  003F              #line 61 "C:\Users\james\Google 雲端硬碟\自製版子\holtek\GitHub\HT_USB_Project\HT66FB550_USB_Common\HT66FB550_IO.c"
  61  003F  0700     E  	mov a,rb
  61  0040  00A3        	mov [35],a
  62  0041              #line 62 "C:\Users\james\Google 雲端硬碟\自製版子\holtek\GitHub\HT_USB_Project\HT66FB550_USB_Common\HT66FB550_IO.c"
  62  0041  2800     R  	jmp _L1
  62  0042              _L5:
  70  0042              #line 70 "C:\Users\james\Google 雲端硬碟\自製版子\holtek\GitHub\HT_USB_Project\HT66FB550_USB_Common\HT66FB550_IO.c"
  70  0042  0F01        	mov a,1
  70  0043  0080     E  	mov ra,a
  70  0044  1080     R  	sz _HT66FB550_IO_DIR_2[3]
  70  0045  2800     R  	jmp _LI5
  70  0046  2800     R  	jmp _L10
  70  0047              _LI5:
  70  0047  1F00     E  	clr ra
  70  0048              _L10:
  70  0048  0700     R  	mov a,_port_C_config[0]
  70  0049  0680     E  	andm a,ra
  71  004A              #line 71 "C:\Users\james\Google 雲端硬碟\自製版子\holtek\GitHub\HT_USB_Project\HT66FB550_USB_Common\HT66FB550_IO.c"
  71  004A  0700     R  	mov a,_HT66FB550_IO_DIR_2[1]
  71  004B  0680     E  	andm a,rb
  71  004C  0700     E  	mov a,ra
  71  004D  0580     E  	orm a,rb
  71  004E  0700     E  	mov a,rb
  71  004F  0080     R  	mov _port_C_config[0],a
  74  0050              #line 74 "C:\Users\james\Google 雲端硬碟\自製版子\holtek\GitHub\HT_USB_Project\HT66FB550_USB_Common\HT66FB550_IO.c"
  74  0050  0700     E  	mov a,rb
  74  0051  00A5        	mov [37],a
  75  0052              #line 75 "C:\Users\james\Google 雲端硬碟\自製版子\holtek\GitHub\HT_USB_Project\HT66FB550_USB_Common\HT66FB550_IO.c"
  75  0052  2800     R  	jmp _L1
  75  0053              _L6:
  83  0053              #line 83 "C:\Users\james\Google 雲端硬碟\自製版子\holtek\GitHub\HT_USB_Project\HT66FB550_USB_Common\HT66FB550_IO.c"
  83  0053  0F01        	mov a,1
"File: HT66FB550_IO.c  Assembler  Version HGASM0202      Page 4

  83  0054  0080     E  	mov ra,a
  83  0055  1080     R  	sz _HT66FB550_IO_DIR_2[3]
  83  0056  2800     R  	jmp _LI6
  83  0057  2800     R  	jmp _L11
  83  0058              _LI6:
  83  0058  1F00     E  	clr ra
  83  0059              _L11:
  83  0059  0700     R  	mov a,_port_D_config[0]
  83  005A  0680     E  	andm a,ra
  84  005B              #line 84 "C:\Users\james\Google 雲端硬碟\自製版子\holtek\GitHub\HT_USB_Project\HT66FB550_USB_Common\HT66FB550_IO.c"
  84  005B  0700     R  	mov a,_HT66FB550_IO_DIR_2[1]
  84  005C  0680     E  	andm a,rb
  84  005D  0700     E  	mov a,ra
  84  005E  0580     E  	orm a,rb
  84  005F  0700     E  	mov a,rb
  84  0060  0080     R  	mov _port_D_config[0],a
  87  0061              #line 87 "C:\Users\james\Google 雲端硬碟\自製版子\holtek\GitHub\HT_USB_Project\HT66FB550_USB_Common\HT66FB550_IO.c"
  87  0061  0700     E  	mov a,rb
  87  0062  00A7        	mov [39],a
  88  0063              #line 88 "C:\Users\james\Google 雲端硬碟\自製版子\holtek\GitHub\HT_USB_Project\HT66FB550_USB_Common\HT66FB550_IO.c"
  88  0063  2800     R  	jmp _L1
  88  0064              _L29:
  96  0064              #line 96 "C:\Users\james\Google 雲端硬碟\自製版子\holtek\GitHub\HT_USB_Project\HT66FB550_USB_Common\HT66FB550_IO.c"
  96  0064  0F01        	mov a,1
  96  0065  0080     E  	mov ra,a
  96  0066  1080     R  	sz _HT66FB550_IO_DIR_2[3]
  96  0067  2800     R  	jmp _LI7
  96  0068  2800     R  	jmp _L12
  96  0069              _LI7:
  96  0069  1F00     E  	clr ra
  96  006A              _L12:
  96  006A  0700     R  	mov a,_port_E_config[0]
  96  006B  0680     E  	andm a,ra
  97  006C              #line 97 "C:\Users\james\Google 雲端硬碟\自製版子\holtek\GitHub\HT_USB_Project\HT66FB550_USB_Common\HT66FB550_IO.c"
  97  006C  0700     R  	mov a,_HT66FB550_IO_DIR_2[1]
  97  006D  0680     E  	andm a,rb
  97  006E  0700     E  	mov a,ra
  97  006F  0580     E  	orm a,rb
  97  0070  0700     E  	mov a,rb
  97  0071  0080     R  	mov _port_E_config[0],a
 100  0072              #line 100 "C:\Users\james\Google 雲端硬碟\自製版子\holtek\GitHub\HT_USB_Project\HT66FB550_USB_Common\HT66FB550_IO.c"
 100  0072  0700     E  	mov a,rb
 100  0073  00A9        	mov [41],a
 100  0074              _L1:
 100  0074  0003        	ret
 100  0075              _HT66FB550_IO_DIR endp
 100  0075              #line 100 "C:\Users\james\Google 雲端硬碟\自製版子\holtek\GitHub\HT_USB_Project\HT66FB550_USB_Common\HT66FB550_IO.c"
 100  0075              #pragma debug scope 1 1
 100  0075              public _HT66FB550_IO_Data
 100  0075              #pragma debug scope 3 1
 106  0075              #line 106 "C:\Users\james\Google 雲端硬碟\自製版子\holtek\GitHub\HT_USB_Project\HT66FB550_USB_Common\HT66FB550_IO.c"
 106  0000              _HT66FB550_IO_Data .section 'code'
 106  0000              _HT66FB550_IO_Data proc
 106  0000              public _HT66FB550_IO_Data_2
 106  0000  0004[           local _HT66FB550_IO_Data_2 db 4 dup(?)	; 2,2
            00
            ]
 106  0000  0080     E  	mov ra,a
 106  0001              #pragma debug variable 7 3 _HT66FB550_IO_Data_2+2 "port"
 106  0001              #pragma debug variable 7 3 _HT66FB550_IO_Data_2+0 "pin"
"File: HT66FB550_IO.c  Assembler  Version HGASM0202      Page 5

 106  0001              #pragma debug variable 7 3 _HT66FB550_IO_Data_2+1 "data"
 106  0001              #pragma debug variable 7 3 _HT66FB550_IO_Data_2+3 "filter"
 108  0001              #line 108 "C:\Users\james\Google 雲端硬碟\自製版子\holtek\GitHub\HT_USB_Project\HT66FB550_USB_Common\HT66FB550_IO.c"
 108  0001  0F01        	mov a,1
 108  0002  0080     E  	mov rb,a
 108  0003  1F00     E  	clr rc
 108  0004  1400     R  	inca _HT66FB550_IO_Data_2[0]
 108  0005  2800     R  	jmp _LI8
 108  0006              _LI9:
 108  0006  340A        	clr c
 108  0007  1A80     E  	rlc rb
 108  0008  1A80     E  	rlc rc
 108  0009              _LI8:
 108  0009  1785        	sdz acc
 108  000A  2800     R  	jmp _LI9
 108  000B  0700     E  	mov a,rb
 108  000C  0080     R  	mov _HT66FB550_IO_Data_2[3],a
 109  000D              #line 109 "C:\Users\james\Google 雲端硬碟\自製版子\holtek\GitHub\HT_USB_Project\HT66FB550_USB_Common\HT66FB550_IO.c"
 109  000D  0700     E  	mov a,ra
 109  000E  0A00        	sub a,0
 109  000F  3D0A        	sz z
 109  0010  2800     R  	jmp _L32
 109  0011  0A01        	sub a,(1)-(0)
 109  0012  3D0A        	sz z
 109  0013  2800     R  	jmp _L33
 109  0014              #line 109 "C:\Users\james\Google 雲端硬碟\自製版子\holtek\GitHub\HT_USB_Project\HT66FB550_USB_Common\HT66FB550_IO.c"
 109  0014  0700     E  	mov a,ra
 109  0015  0A02        	sub a,2
 109  0016  3D0A        	sz z
 109  0017  2800     R  	jmp _L34
 109  0018  0A01        	sub a,(3)-(2)
 109  0019  3D0A        	sz z
 109  001A  2800     R  	jmp _L35
 109  001B  0700     E  	mov a,ra
 109  001C  0A04        	sub a,4
 109  001D  390A        	snz z
 109  001E  2800     R  	jmp _L30
 109  001F  2800     R  	jmp _L57
 109  0020              _L32:
 118  0020              #line 118 "C:\Users\james\Google 雲端硬碟\自製版子\holtek\GitHub\HT_USB_Project\HT66FB550_USB_Common\HT66FB550_IO.c"
 118  0020  0F01        	mov a,1
 118  0021  0080     E  	mov ra,a
 118  0022  1080     R  	sz _HT66FB550_IO_Data_2[3]
 118  0023  2800     R  	jmp _LI10
 118  0024  2800     R  	jmp _L37
 118  0025              _LI10:
 118  0025  1F00     E  	clr ra
 118  0026              _L37:
 118  0026  0700     R  	mov a,_port_A_data[0]
 118  0027  0680     E  	andm a,ra
 119  0028              #line 119 "C:\Users\james\Google 雲端硬碟\自製版子\holtek\GitHub\HT_USB_Project\HT66FB550_USB_Common\HT66FB550_IO.c"
 119  0028  0700     R  	mov a,_HT66FB550_IO_Data_2[1]
 119  0029  0680     E  	andm a,rb
 119  002A  0700     E  	mov a,ra
 119  002B  0580     E  	orm a,rb
 119  002C  0700     E  	mov a,rb
 119  002D  0080     R  	mov _port_A_data[0],a
 122  002E              #line 122 "C:\Users\james\Google 雲端硬碟\自製版子\holtek\GitHub\HT_USB_Project\HT66FB550_USB_Common\HT66FB550_IO.c"
 122  002E  0700     E  	mov a,rb
 122  002F  009A        	mov [26],a
"File: HT66FB550_IO.c  Assembler  Version HGASM0202      Page 6

 123  0030              #line 123 "C:\Users\james\Google 雲端硬碟\自製版子\holtek\GitHub\HT_USB_Project\HT66FB550_USB_Common\HT66FB550_IO.c"
 123  0030  2800     R  	jmp _L30
 123  0031              _L33:
 131  0031              #line 131 "C:\Users\james\Google 雲端硬碟\自製版子\holtek\GitHub\HT_USB_Project\HT66FB550_USB_Common\HT66FB550_IO.c"
 131  0031  0F01        	mov a,1
 131  0032  0080     E  	mov ra,a
 131  0033  1080     R  	sz _HT66FB550_IO_Data_2[3]
 131  0034  2800     R  	jmp _LI11
 131  0035  2800     R  	jmp _L38
 131  0036              _LI11:
 131  0036  1F00     E  	clr ra
 131  0037              _L38:
 131  0037  0700     R  	mov a,_port_B_data[0]
 131  0038  0680     E  	andm a,ra
 132  0039              #line 132 "C:\Users\james\Google 雲端硬碟\自製版子\holtek\GitHub\HT_USB_Project\HT66FB550_USB_Common\HT66FB550_IO.c"
 132  0039  0700     R  	mov a,_HT66FB550_IO_Data_2[1]
 132  003A  0680     E  	andm a,rb
 132  003B  0700     E  	mov a,ra
 132  003C  0580     E  	orm a,rb
 132  003D  0700     E  	mov a,rb
 132  003E  0080     R  	mov _port_B_data[0],a
 135  003F              #line 135 "C:\Users\james\Google 雲端硬碟\自製版子\holtek\GitHub\HT_USB_Project\HT66FB550_USB_Common\HT66FB550_IO.c"
 135  003F  0700     E  	mov a,rb
 135  0040  00A2        	mov [34],a
 136  0041              #line 136 "C:\Users\james\Google 雲端硬碟\自製版子\holtek\GitHub\HT_USB_Project\HT66FB550_USB_Common\HT66FB550_IO.c"
 136  0041  2800     R  	jmp _L30
 136  0042              _L34:
 144  0042              #line 144 "C:\Users\james\Google 雲端硬碟\自製版子\holtek\GitHub\HT_USB_Project\HT66FB550_USB_Common\HT66FB550_IO.c"
 144  0042  0F01        	mov a,1
 144  0043  0080     E  	mov ra,a
 144  0044  1080     R  	sz _HT66FB550_IO_Data_2[3]
 144  0045  2800     R  	jmp _LI12
 144  0046  2800     R  	jmp _L39
 144  0047              _LI12:
 144  0047  1F00     E  	clr ra
 144  0048              _L39:
 144  0048  0700     R  	mov a,_port_C_data[0]
 144  0049  0680     E  	andm a,ra
 145  004A              #line 145 "C:\Users\james\Google 雲端硬碟\自製版子\holtek\GitHub\HT_USB_Project\HT66FB550_USB_Common\HT66FB550_IO.c"
 145  004A  0700     R  	mov a,_HT66FB550_IO_Data_2[1]
 145  004B  0680     E  	andm a,rb
 145  004C  0700     E  	mov a,ra
 145  004D  0580     E  	orm a,rb
 145  004E  0700     E  	mov a,rb
 145  004F  0080     R  	mov _port_C_data[0],a
 148  0050              #line 148 "C:\Users\james\Google 雲端硬碟\自製版子\holtek\GitHub\HT_USB_Project\HT66FB550_USB_Common\HT66FB550_IO.c"
 148  0050  0700     E  	mov a,rb
 148  0051  00A4        	mov [36],a
 149  0052              #line 149 "C:\Users\james\Google 雲端硬碟\自製版子\holtek\GitHub\HT_USB_Project\HT66FB550_USB_Common\HT66FB550_IO.c"
 149  0052  2800     R  	jmp _L30
 149  0053              _L35:
 157  0053              #line 157 "C:\Users\james\Google 雲端硬碟\自製版子\holtek\GitHub\HT_USB_Project\HT66FB550_USB_Common\HT66FB550_IO.c"
 157  0053  0F01        	mov a,1
 157  0054  0080     E  	mov ra,a
 157  0055  1080     R  	sz _HT66FB550_IO_Data_2[3]
 157  0056  2800     R  	jmp _LI13
 157  0057  2800     R  	jmp _L40
 157  0058              _LI13:
 157  0058  1F00     E  	clr ra
 157  0059              _L40:
"File: HT66FB550_IO.c  Assembler  Version HGASM0202      Page 7

 157  0059  0700     R  	mov a,_port_D_data[0]
 157  005A  0680     E  	andm a,ra
 158  005B              #line 158 "C:\Users\james\Google 雲端硬碟\自製版子\holtek\GitHub\HT_USB_Project\HT66FB550_USB_Common\HT66FB550_IO.c"
 158  005B  0700     R  	mov a,_HT66FB550_IO_Data_2[1]
 158  005C  0680     E  	andm a,rb
 158  005D  0700     E  	mov a,ra
 158  005E  0580     E  	orm a,rb
 158  005F  0700     E  	mov a,rb
 158  0060  0080     R  	mov _port_D_data[0],a
 161  0061              #line 161 "C:\Users\james\Google 雲端硬碟\自製版子\holtek\GitHub\HT_USB_Project\HT66FB550_USB_Common\HT66FB550_IO.c"
 161  0061  0700     E  	mov a,rb
 161  0062  00A6        	mov [38],a
 162  0063              #line 162 "C:\Users\james\Google 雲端硬碟\自製版子\holtek\GitHub\HT_USB_Project\HT66FB550_USB_Common\HT66FB550_IO.c"
 162  0063  2800     R  	jmp _L30
 162  0064              _L57:
 170  0064              #line 170 "C:\Users\james\Google 雲端硬碟\自製版子\holtek\GitHub\HT_USB_Project\HT66FB550_USB_Common\HT66FB550_IO.c"
 170  0064  0F01        	mov a,1
 170  0065  0080     E  	mov ra,a
 170  0066  1080     R  	sz _HT66FB550_IO_Data_2[3]
 170  0067  2800     R  	jmp _LI14
 170  0068  2800     R  	jmp _L41
 170  0069              _LI14:
 170  0069  1F00     E  	clr ra
 170  006A              _L41:
 170  006A  0700     R  	mov a,_port_E_data[0]
 170  006B  0680     E  	andm a,ra
 171  006C              #line 171 "C:\Users\james\Google 雲端硬碟\自製版子\holtek\GitHub\HT_USB_Project\HT66FB550_USB_Common\HT66FB550_IO.c"
 171  006C  0700     R  	mov a,_HT66FB550_IO_Data_2[1]
 171  006D  0680     E  	andm a,rb
 171  006E  0700     E  	mov a,ra
 171  006F  0580     E  	orm a,rb
 171  0070  0700     E  	mov a,rb
 171  0071  0080     R  	mov _port_E_data[0],a
 174  0072              #line 174 "C:\Users\james\Google 雲端硬碟\自製版子\holtek\GitHub\HT_USB_Project\HT66FB550_USB_Common\HT66FB550_IO.c"
 174  0072  0700     E  	mov a,rb
 174  0073  00A8        	mov [40],a
 174  0074              _L30:
 174  0074  0003        	ret
 174  0075              _HT66FB550_IO_Data endp
 174  0075              #line 174 "C:\Users\james\Google 雲端硬碟\自製版子\holtek\GitHub\HT_USB_Project\HT66FB550_USB_Common\HT66FB550_IO.c"
 174  0075              #pragma debug scope 1 1
 174  0075              public _HT66FB550_IO_INIT
 174  0075              #pragma debug scope 4 1
  14  0075              #line 14 "C:\Users\james\Google 雲端硬碟\自製版子\holtek\GitHub\HT_USB_Project\HT66FB550_USB_Common\HT66FB550_IO.c"
  14  0000              _HT66FB550_IO_INIT .section 'code'
  14  0000              _HT66FB550_IO_INIT proc
  15  0000              #line 15 "C:\Users\james\Google 雲端硬碟\自製版子\holtek\GitHub\HT_USB_Project\HT66FB550_USB_Common\HT66FB550_IO.c"
  15  0000  1F00     R  	clr _HT66FB550_IO_DIR_2[1]
  15  0001  1F80     R  	set _HT66FB550_IO_DIR_2[0]
  15  0002  0F00        	mov a,0
  15  0003  2000     R  	call _HT66FB550_IO_DIR
  16  0004              #line 16 "C:\Users\james\Google 雲端硬碟\自製版子\holtek\GitHub\HT_USB_Project\HT66FB550_USB_Common\HT66FB550_IO.c"
  16  0004  1F00     R  	clr _HT66FB550_IO_DIR_2[1]
  16  0005  1F80     R  	set _HT66FB550_IO_DIR_2[0]
  16  0006  0F01        	mov a,1
  16  0007  2000     R  	call _HT66FB550_IO_DIR
  17  0008              #line 17 "C:\Users\james\Google 雲端硬碟\自製版子\holtek\GitHub\HT_USB_Project\HT66FB550_USB_Common\HT66FB550_IO.c"
  17  0008  1F00     R  	clr _HT66FB550_IO_DIR_2[1]
  17  0009  1F80     R  	set _HT66FB550_IO_DIR_2[0]
  17  000A  0F02        	mov a,2
"File: HT66FB550_IO.c  Assembler  Version HGASM0202      Page 8

  17  000B  2000     R  	call _HT66FB550_IO_DIR
  18  000C              #line 18 "C:\Users\james\Google 雲端硬碟\自製版子\holtek\GitHub\HT_USB_Project\HT66FB550_USB_Common\HT66FB550_IO.c"
  18  000C  1F00     R  	clr _HT66FB550_IO_DIR_2[1]
  18  000D  1F80     R  	set _HT66FB550_IO_DIR_2[0]
  18  000E  0F03        	mov a,3
  18  000F  2000     R  	call _HT66FB550_IO_DIR
  19  0010              #line 19 "C:\Users\james\Google 雲端硬碟\自製版子\holtek\GitHub\HT_USB_Project\HT66FB550_USB_Common\HT66FB550_IO.c"
  19  0010  1F00     R  	clr _HT66FB550_IO_DIR_2[1]
  19  0011  1F80     R  	set _HT66FB550_IO_DIR_2[0]
  19  0012  0F04        	mov a,4
  19  0013  2000     R  	call _HT66FB550_IO_DIR
  20  0014              #line 20 "C:\Users\james\Google 雲端硬碟\自製版子\holtek\GitHub\HT_USB_Project\HT66FB550_USB_Common\HT66FB550_IO.c"
  20  0014  1F00     R  	clr _HT66FB550_IO_Data_2[1]
  20  0015  1F80     R  	set _HT66FB550_IO_Data_2[0]
  20  0016  0F00        	mov a,0
  20  0017  2000     R  	call _HT66FB550_IO_Data
  21  0018              #line 21 "C:\Users\james\Google 雲端硬碟\自製版子\holtek\GitHub\HT_USB_Project\HT66FB550_USB_Common\HT66FB550_IO.c"
  21  0018  1F00     R  	clr _HT66FB550_IO_Data_2[1]
  21  0019  1F80     R  	set _HT66FB550_IO_Data_2[0]
  21  001A  0F01        	mov a,1
  21  001B  2000     R  	call _HT66FB550_IO_Data
  22  001C              #line 22 "C:\Users\james\Google 雲端硬碟\自製版子\holtek\GitHub\HT_USB_Project\HT66FB550_USB_Common\HT66FB550_IO.c"
  22  001C  1F00     R  	clr _HT66FB550_IO_Data_2[1]
  22  001D  1F80     R  	set _HT66FB550_IO_Data_2[0]
  22  001E  0F02        	mov a,2
  22  001F  2000     R  	call _HT66FB550_IO_Data
  23  0020              #line 23 "C:\Users\james\Google 雲端硬碟\自製版子\holtek\GitHub\HT_USB_Project\HT66FB550_USB_Common\HT66FB550_IO.c"
  23  0020  1F00     R  	clr _HT66FB550_IO_Data_2[1]
  23  0021  1F80     R  	set _HT66FB550_IO_Data_2[0]
  23  0022  0F03        	mov a,3
  23  0023  2000     R  	call _HT66FB550_IO_Data
  24  0024              #line 24 "C:\Users\james\Google 雲端硬碟\自製版子\holtek\GitHub\HT_USB_Project\HT66FB550_USB_Common\HT66FB550_IO.c"
  24  0024  1F00     R  	clr _HT66FB550_IO_Data_2[1]
  24  0025  1F80     R  	set _HT66FB550_IO_Data_2[0]
  24  0026  0F04        	mov a,4
  24  0027  2000     R  	call _HT66FB550_IO_Data
  26  0028              #line 26 "C:\Users\james\Google 雲端硬碟\自製版子\holtek\GitHub\HT_USB_Project\HT66FB550_USB_Common\HT66FB550_IO.c"
  26  0028  1F33        	clr [51]
  27  0029              #line 27 "C:\Users\james\Google 雲端硬碟\自製版子\holtek\GitHub\HT_USB_Project\HT66FB550_USB_Common\HT66FB550_IO.c"
  27  0029  1F34        	clr [52]
  27  002A  0003        	ret
  27  002B              _HT66FB550_IO_INIT endp
  27  002B              #line 27 "C:\Users\james\Google 雲端硬碟\自製版子\holtek\GitHub\HT_USB_Project\HT66FB550_USB_Common\HT66FB550_IO.c"
  27  002B              #pragma debug scope 1 1
  27  002B              public _HT66FB550_IO_Pull_High
  27  002B              #pragma debug scope 5 1
 180  002B              #line 180 "C:\Users\james\Google 雲端硬碟\自製版子\holtek\GitHub\HT_USB_Project\HT66FB550_USB_Common\HT66FB550_IO.c"
 180  0000              _HT66FB550_IO_Pull_High .section 'code'
 180  0000              _HT66FB550_IO_Pull_High proc
 180  0000              public _HT66FB550_IO_Pull_High_2
 180  0000  0004[           local _HT66FB550_IO_Pull_High_2 db 4 dup(?)	; 2,2
            00
            ]
 180  0000  0080     E  	mov ra,a
 180  0001              #pragma debug variable 7 5 _HT66FB550_IO_Pull_High_2+2 "port"
 180  0001              #pragma debug variable 7 5 _HT66FB550_IO_Pull_High_2+0 "pin"
 180  0001              #pragma debug variable 7 5 _HT66FB550_IO_Pull_High_2+1 "data"
 180  0001              #pragma debug variable 7 5 _HT66FB550_IO_Pull_High_2+3 "filter"
 182  0001              #line 182 "C:\Users\james\Google 雲端硬碟\自製版子\holtek\GitHub\HT_USB_Project\HT66FB550_USB_Common\HT66FB550_IO.c"
 182  0001  0F01        	mov a,1
"File: HT66FB550_IO.c  Assembler  Version HGASM0202      Page 9

 182  0002  0080     E  	mov rb,a
 182  0003  1F00     E  	clr rc
 182  0004  1400     R  	inca _HT66FB550_IO_Pull_High_2[0]
 182  0005  2800     R  	jmp _LI15
 182  0006              _LI16:
 182  0006  340A        	clr c
 182  0007  1A80     E  	rlc rb
 182  0008  1A80     E  	rlc rc
 182  0009              _LI15:
 182  0009  1785        	sdz acc
 182  000A  2800     R  	jmp _LI16
 182  000B  0700     E  	mov a,rb
 182  000C  0080     R  	mov _HT66FB550_IO_Pull_High_2[3],a
 183  000D              #line 183 "C:\Users\james\Google 雲端硬碟\自製版子\holtek\GitHub\HT_USB_Project\HT66FB550_USB_Common\HT66FB550_IO.c"
 183  000D  0700     E  	mov a,ra
 183  000E  0A00        	sub a,0
 183  000F  3D0A        	sz z
 183  0010  2800     R  	jmp _L61
 183  0011  0A01        	sub a,(1)-(0)
 183  0012  3D0A        	sz z
 183  0013  2800     R  	jmp _L62
 183  0014              #line 183 "C:\Users\james\Google 雲端硬碟\自製版子\holtek\GitHub\HT_USB_Project\HT66FB550_USB_Common\HT66FB550_IO.c"
 183  0014  0700     E  	mov a,ra
 183  0015  0A02        	sub a,2
 183  0016  3D0A        	sz z
 183  0017  2800     R  	jmp _L63
 183  0018  0A01        	sub a,(3)-(2)
 183  0019  3D0A        	sz z
 183  001A  2800     R  	jmp _L64
 183  001B  0700     E  	mov a,ra
 183  001C  0A04        	sub a,4
 183  001D  390A        	snz z
 183  001E  2800     R  	jmp _L59
 183  001F  2800     R  	jmp _L86
 183  0020              _L61:
 192  0020              #line 192 "C:\Users\james\Google 雲端硬碟\自製版子\holtek\GitHub\HT_USB_Project\HT66FB550_USB_Common\HT66FB550_IO.c"
 192  0020  0F01        	mov a,1
 192  0021  0080     E  	mov ra,a
 192  0022  1080     R  	sz _HT66FB550_IO_Pull_High_2[3]
 192  0023  2800     R  	jmp _LI17
 192  0024  2800     R  	jmp _L66
 192  0025              _LI17:
 192  0025  1F00     E  	clr ra
 192  0026              _L66:
 192  0026  0700     R  	mov a,_port_A_pull_high[0]
 192  0027  0680     E  	andm a,ra
 193  0028              #line 193 "C:\Users\james\Google 雲端硬碟\自製版子\holtek\GitHub\HT_USB_Project\HT66FB550_USB_Common\HT66FB550_IO.c"
 193  0028  0700     R  	mov a,_HT66FB550_IO_Pull_High_2[1]
 193  0029  0680     E  	andm a,rb
 193  002A  0700     E  	mov a,ra
 193  002B  0580     E  	orm a,rb
 193  002C  0700     E  	mov a,rb
 193  002D  0080     R  	mov _port_A_pull_high[0],a
 196  002E              #line 196 "C:\Users\james\Google 雲端硬碟\自製版子\holtek\GitHub\HT_USB_Project\HT66FB550_USB_Common\HT66FB550_IO.c"
 196  002E  0700     E  	mov a,rb
 196  002F  009A        	mov [26],a
 197  0030              #line 197 "C:\Users\james\Google 雲端硬碟\自製版子\holtek\GitHub\HT_USB_Project\HT66FB550_USB_Common\HT66FB550_IO.c"
 197  0030  2800     R  	jmp _L59
 197  0031              _L62:
 205  0031              #line 205 "C:\Users\james\Google 雲端硬碟\自製版子\holtek\GitHub\HT_USB_Project\HT66FB550_USB_Common\HT66FB550_IO.c"
"File: HT66FB550_IO.c  Assembler  Version HGASM0202      Page 10

 205  0031  0F01        	mov a,1
 205  0032  0080     E  	mov ra,a
 205  0033  1080     R  	sz _HT66FB550_IO_Pull_High_2[3]
 205  0034  2800     R  	jmp _LI18
 205  0035  2800     R  	jmp _L67
 205  0036              _LI18:
 205  0036  1F00     E  	clr ra
 205  0037              _L67:
 205  0037  0700     R  	mov a,_port_B_pull_high[0]
 205  0038  0680     E  	andm a,ra
 206  0039              #line 206 "C:\Users\james\Google 雲端硬碟\自製版子\holtek\GitHub\HT_USB_Project\HT66FB550_USB_Common\HT66FB550_IO.c"
 206  0039  0700     R  	mov a,_HT66FB550_IO_Pull_High_2[1]
 206  003A  0680     E  	andm a,rb
 206  003B  0700     E  	mov a,ra
 206  003C  0580     E  	orm a,rb
 206  003D  0700     E  	mov a,rb
 206  003E  0080     R  	mov _port_B_pull_high[0],a
 209  003F              #line 209 "C:\Users\james\Google 雲端硬碟\自製版子\holtek\GitHub\HT_USB_Project\HT66FB550_USB_Common\HT66FB550_IO.c"
 209  003F  0700     E  	mov a,rb
 209  0040  00A2        	mov [34],a
 210  0041              #line 210 "C:\Users\james\Google 雲端硬碟\自製版子\holtek\GitHub\HT_USB_Project\HT66FB550_USB_Common\HT66FB550_IO.c"
 210  0041  2800     R  	jmp _L59
 210  0042              _L63:
 218  0042              #line 218 "C:\Users\james\Google 雲端硬碟\自製版子\holtek\GitHub\HT_USB_Project\HT66FB550_USB_Common\HT66FB550_IO.c"
 218  0042  0F01        	mov a,1
 218  0043  0080     E  	mov ra,a
 218  0044  1080     R  	sz _HT66FB550_IO_Pull_High_2[3]
 218  0045  2800     R  	jmp _LI19
 218  0046  2800     R  	jmp _L68
 218  0047              _LI19:
 218  0047  1F00     E  	clr ra
 218  0048              _L68:
 218  0048  0700     R  	mov a,_port_C_pull_high[0]
 218  0049  0680     E  	andm a,ra
 219  004A              #line 219 "C:\Users\james\Google 雲端硬碟\自製版子\holtek\GitHub\HT_USB_Project\HT66FB550_USB_Common\HT66FB550_IO.c"
 219  004A  0700     R  	mov a,_HT66FB550_IO_Pull_High_2[1]
 219  004B  0680     E  	andm a,rb
 219  004C  0700     E  	mov a,ra
 219  004D  0580     E  	orm a,rb
 219  004E  0700     E  	mov a,rb
 219  004F  0080     R  	mov _port_C_pull_high[0],a
 222  0050              #line 222 "C:\Users\james\Google 雲端硬碟\自製版子\holtek\GitHub\HT_USB_Project\HT66FB550_USB_Common\HT66FB550_IO.c"
 222  0050  0700     E  	mov a,rb
 222  0051  00A4        	mov [36],a
 223  0052              #line 223 "C:\Users\james\Google 雲端硬碟\自製版子\holtek\GitHub\HT_USB_Project\HT66FB550_USB_Common\HT66FB550_IO.c"
 223  0052  2800     R  	jmp _L59
 223  0053              _L64:
 231  0053              #line 231 "C:\Users\james\Google 雲端硬碟\自製版子\holtek\GitHub\HT_USB_Project\HT66FB550_USB_Common\HT66FB550_IO.c"
 231  0053  0F01        	mov a,1
 231  0054  0080     E  	mov ra,a
 231  0055  1080     R  	sz _HT66FB550_IO_Pull_High_2[3]
 231  0056  2800     R  	jmp _LI20
 231  0057  2800     R  	jmp _L69
 231  0058              _LI20:
 231  0058  1F00     E  	clr ra
 231  0059              _L69:
 231  0059  0700     R  	mov a,_port_D_pull_high[0]
 231  005A  0680     E  	andm a,ra
 232  005B              #line 232 "C:\Users\james\Google 雲端硬碟\自製版子\holtek\GitHub\HT_USB_Project\HT66FB550_USB_Common\HT66FB550_IO.c"
 232  005B  0700     R  	mov a,_HT66FB550_IO_Pull_High_2[1]
"File: HT66FB550_IO.c  Assembler  Version HGASM0202      Page 11

 232  005C  0680     E  	andm a,rb
 232  005D  0700     E  	mov a,ra
 232  005E  0580     E  	orm a,rb
 232  005F  0700     E  	mov a,rb
 232  0060  0080     R  	mov _port_D_pull_high[0],a
 235  0061              #line 235 "C:\Users\james\Google 雲端硬碟\自製版子\holtek\GitHub\HT_USB_Project\HT66FB550_USB_Common\HT66FB550_IO.c"
 235  0061  0700     E  	mov a,rb
 235  0062  00A6        	mov [38],a
 236  0063              #line 236 "C:\Users\james\Google 雲端硬碟\自製版子\holtek\GitHub\HT_USB_Project\HT66FB550_USB_Common\HT66FB550_IO.c"
 236  0063  2800     R  	jmp _L59
 236  0064              _L86:
 244  0064              #line 244 "C:\Users\james\Google 雲端硬碟\自製版子\holtek\GitHub\HT_USB_Project\HT66FB550_USB_Common\HT66FB550_IO.c"
 244  0064  0F01        	mov a,1
 244  0065  0080     E  	mov ra,a
 244  0066  1080     R  	sz _HT66FB550_IO_Pull_High_2[3]
 244  0067  2800     R  	jmp _LI21
 244  0068  2800     R  	jmp _L70
 244  0069              _LI21:
 244  0069  1F00     E  	clr ra
 244  006A              _L70:
 244  006A  0700     R  	mov a,_port_E_pull_high[0]
 244  006B  0680     E  	andm a,ra
 245  006C              #line 245 "C:\Users\james\Google 雲端硬碟\自製版子\holtek\GitHub\HT_USB_Project\HT66FB550_USB_Common\HT66FB550_IO.c"
 245  006C  0700     R  	mov a,_HT66FB550_IO_Pull_High_2[1]
 245  006D  0680     E  	andm a,rb
 245  006E  0700     E  	mov a,ra
 245  006F  0580     E  	orm a,rb
 245  0070  0700     E  	mov a,rb
 245  0071  0080     R  	mov _port_E_pull_high[0],a
 248  0072              #line 248 "C:\Users\james\Google 雲端硬碟\自製版子\holtek\GitHub\HT_USB_Project\HT66FB550_USB_Common\HT66FB550_IO.c"
 248  0072  0700     E  	mov a,rb
 248  0073  00A8        	mov [40],a
 248  0074              _L59:
 248  0074  0003        	ret
 248  0075              _HT66FB550_IO_Pull_High endp
 248  0075              #line 248 "C:\Users\james\Google 雲端硬碟\自製版子\holtek\GitHub\HT_USB_Project\HT66FB550_USB_Common\HT66FB550_IO.c"
 248  0075              #pragma debug scope 1 1
 248  0075              public _HT66FB550_IO_High_Current
 248  0075              #pragma debug scope 6 1
 254  0075              #line 254 "C:\Users\james\Google 雲端硬碟\自製版子\holtek\GitHub\HT_USB_Project\HT66FB550_USB_Common\HT66FB550_IO.c"
 254  0000              _HT66FB550_IO_High_Current .section 'code'
 254  0000              _HT66FB550_IO_High_Current proc
 254  0000              public _HT66FB550_IO_High_Current_2
 254  0000  0002[           local _HT66FB550_IO_High_Current_2 db 2 dup(?)	; 1,1
            00
            ]
 254  0000  0080     E  	mov ra,a
 254  0001  0080     R  	mov _HT66FB550_IO_High_Current_2[1],a
 254  0002              #pragma debug variable 7 6 _HT66FB550_IO_High_Current_2+1 "port"
 254  0002              #pragma debug variable 7 6 _HT66FB550_IO_High_Current_2+0 "data"
 255  0002              #line 255 "C:\Users\james\Google 雲端硬碟\自製版子\holtek\GitHub\HT_USB_Project\HT66FB550_USB_Common\HT66FB550_IO.c"
 255  0002  0700     E  	mov a,ra
 255  0003  0A00        	sub a,0
 255  0004  3D0A        	sz z
 255  0005  2800     R  	jmp _L89
 255  0006  0A01        	sub a,(1)-(0)
 255  0007  3D0A        	sz z
 255  0008  2800     R  	jmp _L90
 255  0009              #line 255 "C:\Users\james\Google 雲端硬碟\自製版子\holtek\GitHub\HT_USB_Project\HT66FB550_USB_Common\HT66FB550_IO.c"
 255  0009  0700     E  	mov a,ra
"File: HT66FB550_IO.c  Assembler  Version HGASM0202      Page 12

 255  000A  0A02        	sub a,2
 255  000B  3D0A        	sz z
 255  000C  2800     R  	jmp _L91
 255  000D  0A01        	sub a,(3)-(2)
 255  000E  3D0A        	sz z
 255  000F  2800     R  	jmp _L92
 255  0010  0700     E  	mov a,ra
 255  0011  0A04        	sub a,4
 255  0012  390A        	snz z
 255  0013  2800     R  	jmp _L87
 255  0014  2800     R  	jmp _L93
 255  0015              _L89:
 258  0015              #line 258 "C:\Users\james\Google 雲端硬碟\自製版子\holtek\GitHub\HT_USB_Project\HT66FB550_USB_Common\HT66FB550_IO.c"
 258  0015  1700     R  	sdza _HT66FB550_IO_High_Current_2[0]
 258  0016  2800     R  	jmp _L104
 261  0017              #line 261 "C:\Users\james\Google 雲端硬碟\自製版子\holtek\GitHub\HT_USB_Project\HT66FB550_USB_Common\HT66FB550_IO.c"
 261  0017  1F9D        	set [29]
 262  0018              #line 262 "C:\Users\james\Google 雲端硬碟\自製版子\holtek\GitHub\HT_USB_Project\HT66FB550_USB_Common\HT66FB550_IO.c"
 262  0018  2800     R  	jmp _L87
 262  0019              _L104:
 265  0019              #line 265 "C:\Users\james\Google 雲端硬碟\自製版子\holtek\GitHub\HT_USB_Project\HT66FB550_USB_Common\HT66FB550_IO.c"
 265  0019  1F1D        	clr [29]
 266  001A              #line 266 "C:\Users\james\Google 雲端硬碟\自製版子\holtek\GitHub\HT_USB_Project\HT66FB550_USB_Common\HT66FB550_IO.c"
 266  001A  2800     R  	jmp _L87
 266  001B              _L90:
 270  001B              #line 270 "C:\Users\james\Google 雲端硬碟\自製版子\holtek\GitHub\HT_USB_Project\HT66FB550_USB_Common\HT66FB550_IO.c"
 270  001B  1700     R  	sdza _HT66FB550_IO_High_Current_2[0]
 270  001C  2800     R  	jmp _L105
 273  001D              #line 273 "C:\Users\james\Google 雲端硬碟\自製版子\holtek\GitHub\HT_USB_Project\HT66FB550_USB_Common\HT66FB550_IO.c"
 273  001D  30A1        	set [33].1
 274  001E              #line 274 "C:\Users\james\Google 雲端硬碟\自製版子\holtek\GitHub\HT_USB_Project\HT66FB550_USB_Common\HT66FB550_IO.c"
 274  001E  3021        	set [33].0
 274  001F  2800     R  	jmp _L98
 274  0020              _L105:
 278  0020              #line 278 "C:\Users\james\Google 雲端硬碟\自製版子\holtek\GitHub\HT_USB_Project\HT66FB550_USB_Common\HT66FB550_IO.c"
 278  0020  34A1        	clr [33].1
 279  0021              #line 279 "C:\Users\james\Google 雲端硬碟\自製版子\holtek\GitHub\HT_USB_Project\HT66FB550_USB_Common\HT66FB550_IO.c"
 279  0021  3421        	clr [33].0
 279  0022              _L91:
 283  0022              #line 283 "C:\Users\james\Google 雲端硬碟\自製版子\holtek\GitHub\HT_USB_Project\HT66FB550_USB_Common\HT66FB550_IO.c"
 283  0022  1700     R  	sdza _HT66FB550_IO_High_Current_2[0]
 283  0023  2800     R  	jmp _L106
 283  0024              _L98:
 286  0024              #line 286 "C:\Users\james\Google 雲端硬碟\自製版子\holtek\GitHub\HT_USB_Project\HT66FB550_USB_Common\HT66FB550_IO.c"
 286  0024  31A1        	set [33].3
 287  0025              #line 287 "C:\Users\james\Google 雲端硬碟\自製版子\holtek\GitHub\HT_USB_Project\HT66FB550_USB_Common\HT66FB550_IO.c"
 287  0025  3121        	set [33].2
 287  0026  2800     R  	jmp _L100
 287  0027              _L106:
 291  0027              #line 291 "C:\Users\james\Google 雲端硬碟\自製版子\holtek\GitHub\HT_USB_Project\HT66FB550_USB_Common\HT66FB550_IO.c"
 291  0027  35A1        	clr [33].3
 292  0028              #line 292 "C:\Users\james\Google 雲端硬碟\自製版子\holtek\GitHub\HT_USB_Project\HT66FB550_USB_Common\HT66FB550_IO.c"
 292  0028  3521        	clr [33].2
 292  0029              _L92:
 296  0029              #line 296 "C:\Users\james\Google 雲端硬碟\自製版子\holtek\GitHub\HT_USB_Project\HT66FB550_USB_Common\HT66FB550_IO.c"
 296  0029  1700     R  	sdza _HT66FB550_IO_High_Current_2[0]
 296  002A  2800     R  	jmp _L107
 296  002B              _L100:
 299  002B              #line 299 "C:\Users\james\Google 雲端硬碟\自製版子\holtek\GitHub\HT_USB_Project\HT66FB550_USB_Common\HT66FB550_IO.c"
 299  002B  32A1        	set [33].5
"File: HT66FB550_IO.c  Assembler  Version HGASM0202      Page 13

 300  002C              #line 300 "C:\Users\james\Google 雲端硬碟\自製版子\holtek\GitHub\HT_USB_Project\HT66FB550_USB_Common\HT66FB550_IO.c"
 300  002C  3221        	set [33].4
 300  002D  2800     R  	jmp _L102
 300  002E              _L107:
 304  002E              #line 304 "C:\Users\james\Google 雲端硬碟\自製版子\holtek\GitHub\HT_USB_Project\HT66FB550_USB_Common\HT66FB550_IO.c"
 304  002E  36A1        	clr [33].5
 305  002F              #line 305 "C:\Users\james\Google 雲端硬碟\自製版子\holtek\GitHub\HT_USB_Project\HT66FB550_USB_Common\HT66FB550_IO.c"
 305  002F  3621        	clr [33].4
 305  0030              _L93:
 309  0030              #line 309 "C:\Users\james\Google 雲端硬碟\自製版子\holtek\GitHub\HT_USB_Project\HT66FB550_USB_Common\HT66FB550_IO.c"
 309  0030  1700     R  	sdza _HT66FB550_IO_High_Current_2[0]
 309  0031  2800     R  	jmp _L108
 309  0032              _L102:
 312  0032              #line 312 "C:\Users\james\Google 雲端硬碟\自製版子\holtek\GitHub\HT_USB_Project\HT66FB550_USB_Common\HT66FB550_IO.c"
 312  0032  33A1        	set [33].7
 313  0033              #line 313 "C:\Users\james\Google 雲端硬碟\自製版子\holtek\GitHub\HT_USB_Project\HT66FB550_USB_Common\HT66FB550_IO.c"
 313  0033  3321        	set [33].6
 314  0034              #line 314 "C:\Users\james\Google 雲端硬碟\自製版子\holtek\GitHub\HT_USB_Project\HT66FB550_USB_Common\HT66FB550_IO.c"
 314  0034  2800     R  	jmp _L87
 314  0035              _L108:
 317  0035              #line 317 "C:\Users\james\Google 雲端硬碟\自製版子\holtek\GitHub\HT_USB_Project\HT66FB550_USB_Common\HT66FB550_IO.c"
 317  0035  37A1        	clr [33].7
 318  0036              #line 318 "C:\Users\james\Google 雲端硬碟\自製版子\holtek\GitHub\HT_USB_Project\HT66FB550_USB_Common\HT66FB550_IO.c"
 318  0036  3721        	clr [33].6
 318  0037              _L87:
 318  0037  0003        	ret
 318  0038              _HT66FB550_IO_High_Current endp
 318  0038              #line 318 "C:\Users\james\Google 雲端硬碟\自製版子\holtek\GitHub\HT_USB_Project\HT66FB550_USB_Common\HT66FB550_IO.c"
 318  0038              #pragma debug scope 1 1
 318  0038              public _HT66FB550_IO_Slew_Rate
 318  0038              #pragma debug scope 7 1
 325  0038              #line 325 "C:\Users\james\Google 雲端硬碟\自製版子\holtek\GitHub\HT_USB_Project\HT66FB550_USB_Common\HT66FB550_IO.c"
 325  0000              _HT66FB550_IO_Slew_Rate .section 'code'
 325  0000              _HT66FB550_IO_Slew_Rate proc
 325  0000  0003        	ret
 325  0001              _HT66FB550_IO_Slew_Rate endp
 325  0001              #line 325 "C:\Users\james\Google 雲端硬碟\自製版子\holtek\GitHub\HT_USB_Project\HT66FB550_USB_Common\HT66FB550_IO.c"
 325  0001              #pragma debug scope 1 1
 325  0001              public _HT66FB550_IO_Port_A_Output_Power_Control
 325  0001              #pragma debug scope 8 1
 329  0001              #line 329 "C:\Users\james\Google 雲端硬碟\自製版子\holtek\GitHub\HT_USB_Project\HT66FB550_USB_Common\HT66FB550_IO.c"
 329  0000              _HT66FB550_IO_Port_A_Output_Power_Control .section 'code'
 329  0000              _HT66FB550_IO_Port_A_Output_Power_Control proc
 329  0000              public _HT66FB550_IO_Port_A_Output_Power_Control_2
 329  0000  0002[           local _HT66FB550_IO_Port_A_Output_Power_Control_2 db 2 dup(?)	; 1,1
            00
            ]
 329  0002              #pragma debug variable 7 8 _HT66FB550_IO_Port_A_Output_Power_Control_2+1 "pin"
 329  0002              #pragma debug variable 7 8 _HT66FB550_IO_Port_A_Output_Power_Control_2+0 "power_source"
 329  0000  0003        	ret
 329  0001              _HT66FB550_IO_Port_A_Output_Power_Control endp
 329  0001              #line 329 "C:\Users\james\Google 雲端硬碟\自製版子\holtek\GitHub\HT_USB_Project\HT66FB550_USB_Common\HT66FB550_IO.c"
 329  0001              #pragma debug scope 1 1
  11  0001              #line 11 "C:\Users\james\Google 雲端硬碟\自製版子\holtek\GitHub\HT_USB_Project\HT66FB550_USB_Common\HT66FB550_IO.c"
  11  0001              public _port_E_pull_high
  11  0000              @HCCINIT0 .section 'data'
  11  0000  00          _port_E_pull_high	db 0
  11  0001              #pragma debug variable 7 1 _port_E_pull_high "port_E_pull_high"
  11  0001              
  11  0000              @HCCINIT .section 'data'
"File: HT66FB550_IO.c  Assembler  Version HGASM0202      Page 14

  11  0000              #line 11 "C:\Users\james\Google 雲端硬碟\自製版子\holtek\GitHub\HT_USB_Project\HT66FB550_USB_Common\HT66FB550_IO.c"
  11  0000              public _port_D_pull_high
  11  0001              @HCCINIT0 .section 'data'
  11  0001  00          _port_D_pull_high	db 0
  11  0002              #pragma debug variable 7 1 _port_D_pull_high "port_D_pull_high"
  11  0002              
  11  0000              @HCCINIT .section 'data'
  11  0000              #line 11 "C:\Users\james\Google 雲端硬碟\自製版子\holtek\GitHub\HT_USB_Project\HT66FB550_USB_Common\HT66FB550_IO.c"
  11  0000              public _port_C_pull_high
  11  0002              @HCCINIT0 .section 'data'
  11  0002  00          _port_C_pull_high	db 0
  11  0003              #pragma debug variable 7 1 _port_C_pull_high "port_C_pull_high"
  11  0003              
  11  0000              @HCCINIT .section 'data'
  11  0000              #line 11 "C:\Users\james\Google 雲端硬碟\自製版子\holtek\GitHub\HT_USB_Project\HT66FB550_USB_Common\HT66FB550_IO.c"
  11  0000              public _port_B_pull_high
  11  0003              @HCCINIT0 .section 'data'
  11  0003  00          _port_B_pull_high	db 0
  11  0004              #pragma debug variable 7 1 _port_B_pull_high "port_B_pull_high"
  11  0004              
  11  0000              @HCCINIT .section 'data'
  11  0000              #line 11 "C:\Users\james\Google 雲端硬碟\自製版子\holtek\GitHub\HT_USB_Project\HT66FB550_USB_Common\HT66FB550_IO.c"
  11  0000              public _port_A_pull_high
  11  0004              @HCCINIT0 .section 'data'
  11  0004  00          _port_A_pull_high	db 0
  11  0005              #pragma debug variable 7 1 _port_A_pull_high "port_A_pull_high"
  11  0005              
  11  0000              @HCCINIT .section 'data'
   9  0000              #line 9 "C:\Users\james\Google 雲端硬碟\自製版子\holtek\GitHub\HT_USB_Project\HT66FB550_USB_Common\HT66FB550_IO.c"
   9  0000              public _port_E_data
   9  0005              @HCCINIT0 .section 'data'
   9  0005  00          _port_E_data	db 0
   9  0006              #pragma debug variable 7 1 _port_E_data "port_E_data"
   9  0006              
   9  0000              @HCCINIT .section 'data'
   9  0000              #line 9 "C:\Users\james\Google 雲端硬碟\自製版子\holtek\GitHub\HT_USB_Project\HT66FB550_USB_Common\HT66FB550_IO.c"
   9  0000              public _port_D_data
   9  0006              @HCCINIT0 .section 'data'
   9  0006  00          _port_D_data	db 0
   9  0007              #pragma debug variable 7 1 _port_D_data "port_D_data"
   9  0007              
   9  0000              @HCCINIT .section 'data'
   9  0000              #line 9 "C:\Users\james\Google 雲端硬碟\自製版子\holtek\GitHub\HT_USB_Project\HT66FB550_USB_Common\HT66FB550_IO.c"
   9  0000              public _port_C_data
   9  0007              @HCCINIT0 .section 'data'
   9  0007  00          _port_C_data	db 0
   9  0008              #pragma debug variable 7 1 _port_C_data "port_C_data"
   9  0008              
   9  0000              @HCCINIT .section 'data'
   9  0000              #line 9 "C:\Users\james\Google 雲端硬碟\自製版子\holtek\GitHub\HT_USB_Project\HT66FB550_USB_Common\HT66FB550_IO.c"
   9  0000              public _port_B_data
   9  0008              @HCCINIT0 .section 'data'
   9  0008  00          _port_B_data	db 0
   9  0009              #pragma debug variable 7 1 _port_B_data "port_B_data"
   9  0009              
   9  0000              @HCCINIT .section 'data'
   9  0000              #line 9 "C:\Users\james\Google 雲端硬碟\自製版子\holtek\GitHub\HT_USB_Project\HT66FB550_USB_Common\HT66FB550_IO.c"
   9  0000              public _port_A_data
   9  0009              @HCCINIT0 .section 'data'
   9  0009  00          _port_A_data	db 0
"File: HT66FB550_IO.c  Assembler  Version HGASM0202      Page 15

   9  000A              #pragma debug variable 7 1 _port_A_data "port_A_data"
   9  000A              
   9  0000              @HCCINIT .section 'data'
   7  0000              #line 7 "C:\Users\james\Google 雲端硬碟\自製版子\holtek\GitHub\HT_USB_Project\HT66FB550_USB_Common\HT66FB550_IO.c"
   7  0000              public _port_E_config
   7  000A              @HCCINIT0 .section 'data'
   7  000A  00          _port_E_config	db 0
   7  000B              #pragma debug variable 7 1 _port_E_config "port_E_config"
   7  000B              
   7  0000              @HCCINIT .section 'data'
   7  0000              #line 7 "C:\Users\james\Google 雲端硬碟\自製版子\holtek\GitHub\HT_USB_Project\HT66FB550_USB_Common\HT66FB550_IO.c"
   7  0000              public _port_D_config
   7  000B              @HCCINIT0 .section 'data'
   7  000B  00          _port_D_config	db 0
   7  000C              #pragma debug variable 7 1 _port_D_config "port_D_config"
   7  000C              
   7  0000              @HCCINIT .section 'data'
   7  0000              #line 7 "C:\Users\james\Google 雲端硬碟\自製版子\holtek\GitHub\HT_USB_Project\HT66FB550_USB_Common\HT66FB550_IO.c"
   7  0000              public _port_C_config
   7  000C              @HCCINIT0 .section 'data'
   7  000C  00          _port_C_config	db 0
   7  000D              #pragma debug variable 7 1 _port_C_config "port_C_config"
   7  000D              
   7  0000              @HCCINIT .section 'data'
   7  0000              #line 7 "C:\Users\james\Google 雲端硬碟\自製版子\holtek\GitHub\HT_USB_Project\HT66FB550_USB_Common\HT66FB550_IO.c"
   7  0000              public _port_B_config
   7  000D              @HCCINIT0 .section 'data'
   7  000D  00          _port_B_config	db 0
   7  000E              #pragma debug variable 7 1 _port_B_config "port_B_config"
   7  000E              
   7  0000              @HCCINIT .section 'data'
   7  0000              #line 7 "C:\Users\james\Google 雲端硬碟\自製版子\holtek\GitHub\HT_USB_Project\HT66FB550_USB_Common\HT66FB550_IO.c"
   7  0000              public _port_A_config
   7  000E              @HCCINIT0 .section 'data'
   7  000E  00          _port_A_config	db 0
   7  000F              #pragma debug variable 7 1 _port_A_config "port_A_config"
   7  000F              
   7  0000              @HCCINIT .section 'data'
   7  0000              ___pa equ [01ah]
   7  0000              #pragma debug struct_end
   7  0000              #pragma debug struct_end
   7  0000              #pragma debug union_end
   7  0000              #pragma debug union_end
   7  0000              #pragma debug variable 43 1 [01ah] "__pa" 1
   7  0000              ___pac equ [01bh]
   7  0000              #pragma debug struct_end
   7  0000              #pragma debug struct_end
   7  0000              #pragma debug union_end
   7  0000              #pragma debug union_end
   7  0000              #pragma debug variable 45 1 [01bh] "__pac" 1
   7  0000              ___paoi equ [01dh]
   7  0000              #pragma debug variable 8 1 [01dh] "__paoi" 1
   7  0000              ___pxoi equ [021h]
   7  0000              #pragma debug struct_end
   7  0000              #pragma debug struct_end
   7  0000              #pragma debug union_end
   7  0000              #pragma debug union_end
   7  0000              #pragma debug variable 47 1 [021h] "__pxoi" 1
   7  0000              ___pb equ [022h]
   7  0000              #pragma debug struct_end
"File: HT66FB550_IO.c  Assembler  Version HGASM0202      Page 16

   7  0000              #pragma debug struct_end
   7  0000              #pragma debug union_end
   7  0000              #pragma debug union_end
   7  0000              #pragma debug variable 49 1 [022h] "__pb" 1
   7  0000              ___pbc equ [023h]
   7  0000              #pragma debug struct_end
   7  0000              #pragma debug struct_end
   7  0000              #pragma debug union_end
   7  0000              #pragma debug union_end
   7  0000              #pragma debug variable 51 1 [023h] "__pbc" 1
   7  0000              ___pc equ [024h]
   7  0000              #pragma debug struct_end
   7  0000              #pragma debug struct_end
   7  0000              #pragma debug union_end
   7  0000              #pragma debug union_end
   7  0000              #pragma debug variable 53 1 [024h] "__pc" 1
   7  0000              ___pcc equ [025h]
   7  0000              #pragma debug struct_end
   7  0000              #pragma debug struct_end
   7  0000              #pragma debug union_end
   7  0000              #pragma debug union_end
   7  0000              #pragma debug variable 55 1 [025h] "__pcc" 1
   7  0000              ___pd equ [026h]
   7  0000              #pragma debug struct_end
   7  0000              #pragma debug struct_end
   7  0000              #pragma debug union_end
   7  0000              #pragma debug union_end
   7  0000              #pragma debug variable 57 1 [026h] "__pd" 1
   7  0000              ___pdc equ [027h]
   7  0000              #pragma debug struct_end
   7  0000              #pragma debug struct_end
   7  0000              #pragma debug union_end
   7  0000              #pragma debug union_end
   7  0000              #pragma debug variable 59 1 [027h] "__pdc" 1
   7  0000              ___pe equ [028h]
   7  0000              #pragma debug struct_end
   7  0000              #pragma debug struct_end
   7  0000              #pragma debug union_end
   7  0000              #pragma debug union_end
   7  0000              #pragma debug variable 61 1 [028h] "__pe" 1
   7  0000              ___pec equ [029h]
   7  0000              #pragma debug struct_end
   7  0000              #pragma debug struct_end
   7  0000              #pragma debug union_end
   7  0000              #pragma debug union_end
   7  0000              #pragma debug variable 63 1 [029h] "__pec" 1
   7  0000              ___acer0 equ [033h]
   7  0000              #pragma debug struct_end
   7  0000              #pragma debug struct_end
   7  0000              #pragma debug union_end
   7  0000              #pragma debug union_end
   7  0000              #pragma debug variable 65 1 [033h] "__acer0" 1
   7  0000              ___acer1 equ [034h]
   7  0000              #pragma debug struct_end
   7  0000              #pragma debug struct_end
   7  0000              #pragma debug union_end
   7  0000              #pragma debug union_end
   7  0000              #pragma debug variable 67 1 [034h] "__acer1" 1
   7  0000              IFDEF ISR_SYSTEM_STACK_BEFORE_2014_12_23
   7  0000              ELSE
"File: HT66FB550_IO.c  Assembler  Version HGASM0202      Page 17

   7  0000              ENDIF
   7  0000              
   7  0000              ; 
   7  0000              ; Generated by holtek-gcc v3.12, Sun May 03 22:35:08 2015
   7  0000              ; Rebuild 113
   7  0000              ; end of file


        0 Errors, 0