"File: HT66FB550_UART.c  Assembler  Version HGASM0202      Page 1


   1  0000              ; Generated by holtek-gcc v3.12, Mon May 04 21:00:05 2015
   2  0000              ; 
   3  0000              ; Configuration:
   4  0000              ;       without long instruction
   5  0000              ;       Single ROM, Multi-RAM
   6  0000              ;       bits_per_rom_unit:16
   7  0000              ;       with mp1
   8  0000              ;       with tbhp, address(0x9)
   9  0000              ;          Use tabrd-const
  10  0000              ;       
  11  0000              ;       
  12  0000              ; use 'tabrdc' instead of 'tabrd'
  13  0000              ;       
  14  0000              
  15  0000              #pragma translator "holtek-gcc 4.6.4" "3.12" "build 20130711"
  16  0000              ; Rebuild 113
  17  0000              
  18  0000              ir equ [2]
  19  0000              mp equ [3]
  20  0000              sbp equ [1]
  21  0000              acc equ [5]
  22  0000              bp equ [4]
  23  0000              tblp equ [7]
  24  0000              tbhp equ [9]
  25  0000              status equ [10]
  26  0000              c equ [10].0
  27  0000              ac equ [10].1
  28  0000              z equ [10].2
  29  0000              ov equ [10].3
  30  0000              intc equ [11]
  31  0000              
  32  0000              extern ra:byte
  33  0000              extern rb:byte
  34  0000              extern rc:byte
  35  0000              extern rd:byte
  36  0000              extern re:byte
  37  0000              extern rf:byte
  38  0000              extern rg:byte
  39  0000              extern rh:byte
  40  0000              extern _Crom2Prom:near
  41  0000              extern _Crom2PromNext:near
  42  0000              
  43  0000              RAMBANK 0 @HCCINIT, @HCCINIT0
  44  0000              @HCCINIT	.section 'data'
  45  0000              @HCCINIT0	.section 'data'
  46  0000              
  47  0000              #pragma debug scope 1 1
  48  0000              	extern __DELAY3:near
  49  0000              	extern __DELAYX3:near
  50  0000              	extern __DELAYX6:near
  51  0000              	extern __DELAYY5:near
  52  0000              	extern __DELAYY3:near
  53  0000              	extern _builtin_holtek_delay_2:byte
  54  0000              public _UART_ISR
  55  0000              #pragma debug scope 2 1

  31  0000              #line 31 "C:\Users\james\Google 雲端硬碟\自製版子\holtek\GitHub\HT_USB_Project\HT66FB550_USB_Common\HT66FB550_UART.c"
  31  0000              _UART_ISR .section 'code'
  31  0000              _UART_ISR proc
"File: HT66FB550_UART.c  Assembler  Version HGASM0202      Page 2

  32  0000              #line 32 "C:\Users\james\Google 雲端硬碟\自製版子\holtek\GitHub\HT_USB_Project\HT66FB550_USB_Common\HT66FB550_UART.c"
  32  0000  0700     R  	mov a,_uart_pin_buf[0]
  32  0001  0E01        	and a,1
  32  0002  0080     E  	mov ra,a
  32  0003  0700     E  	mov a,ra
  32  0004  0380     E  	addm a,ra
  32  0005  0722        	mov a,[34]
  32  0006  0080     E  	mov rb,a
  32  0007  3400     E  	clr rb.1
  32  0008  0700     E  	mov a,rb
  32  0009  0500     E  	or a,ra
  32  000A  00A2        	mov [34],a
  33  000B              #line 33 "C:\Users\james\Google 雲端硬碟\自製版子\holtek\GitHub\HT_USB_Project\HT66FB550_USB_Common\HT66FB550_UART.c"
  33  000B  0700     R  	mov a,_uart_step[0]
  33  000C  0A00        	sub a,0
  33  000D  3D0A        	sz z
  33  000E  2800     R  	jmp _L5
  33  000F  0A01        	sub a,(1)-(0)
  33  0010  3D0A        	sz z
  33  0011  2800     R  	jmp _L8
  33  0012              #line 33 "C:\Users\james\Google 雲端硬碟\自製版子\holtek\GitHub\HT_USB_Project\HT66FB550_USB_Common\HT66FB550_UART.c"
  33  0012  0700     R  	mov a,_uart_step[0]
  33  0013  0A02        	sub a,2
  33  0014  3D0A        	sz z
  33  0015  2800     R  	jmp _L5
  33  0016  0A01        	sub a,(3)-(2)
  33  0017  3D0A        	sz z
  33  0018  2800     R  	jmp _L8
  33  0019  0700     R  	mov a,_uart_step[0]
  33  001A  0A04        	sub a,4
  33  001B  3D0A        	sz z
  33  001C  2800     R  	jmp _L5
  33  001D  0A01        	sub a,(5)-(4)
  33  001E  3D0A        	sz z
  33  001F  2800     R  	jmp _L8
  33  0020  0700     R  	mov a,_uart_step[0]
  33  0021  0A06        	sub a,6
  33  0022  3D0A        	sz z
  33  0023  2800     R  	jmp _L5
  33  0024  0A01        	sub a,(7)-(6)
  33  0025  3D0A        	sz z
  33  0026  2800     R  	jmp _L8
  33  0027  0700     R  	mov a,_uart_step[0]
  33  0028  0A08        	sub a,8
  33  0029  3D0A        	sz z
  33  002A  2800     R  	jmp _L5
  33  002B  0A01        	sub a,(9)-(8)
  33  002C  3D0A        	sz z
  33  002D  2800     R  	jmp _L8
  33  002E  0700     R  	mov a,_uart_step[0]
  33  002F  0A0A        	sub a,10
  33  0030  3D0A        	sz z
  33  0031  2800     R  	jmp _L8
  33  0032  0A01        	sub a,(11)-(10)
  33  0033  3D0A        	sz z
  33  0034  2800     R  	jmp _L8
  33  0035  0700     R  	mov a,_uart_step[0]
  33  0036  0A0C        	sub a,12
  33  0037  390A        	snz z
  33  0038  2800     R  	jmp _L2
"File: HT66FB550_UART.c  Assembler  Version HGASM0202      Page 3

  56  0039              #line 56 "C:\Users\james\Google 雲端硬碟\自製版子\holtek\GitHub\HT_USB_Project\HT66FB550_USB_Common\HT66FB550_UART.c"
  56  0039  1F80     R  	set _uart_step[0]
  56  003A  2800     R  	jmp _L8
  56  003B              _L5:
  48  003B              #line 48 "C:\Users\james\Google 雲端硬碟\自製版子\holtek\GitHub\HT_USB_Project\HT66FB550_USB_Common\HT66FB550_UART.c"
  48  003B  1F00     R  	clr _uart_pin_buf[0]
  49  003C              #line 49 "C:\Users\james\Google 雲端硬碟\自製版子\holtek\GitHub\HT_USB_Project\HT66FB550_USB_Common\HT66FB550_UART.c"
  49  003C  2800     R  	jmp _L2
  49  003D              _L8:
  57  003D              #line 57 "C:\Users\james\Google 雲端硬碟\自製版子\holtek\GitHub\HT_USB_Project\HT66FB550_USB_Common\HT66FB550_UART.c"
  57  003D  0F01        	mov a,1
  57  003E  0080     R  	mov _uart_pin_buf[0],a
  57  003F              _L2:
  60  003F              #line 60 "C:\Users\james\Google 雲端硬碟\自製版子\holtek\GitHub\HT_USB_Project\HT66FB550_USB_Common\HT66FB550_UART.c"
  60  003F  1480     R  	inc _uart_step[0]
  60  0040  0003        	ret
  60  0041              _UART_ISR endp
  60  0041              #line 60 "C:\Users\james\Google 雲端硬碟\自製版子\holtek\GitHub\HT_USB_Project\HT66FB550_USB_Common\HT66FB550_UART.c"
  60  0041              #pragma debug scope 1 1
  60  0041              public _ISR_timer3
  60  0041              #pragma debug scope 3 1
  20  0041              #line 20 "C:\Users\james\Google 雲端硬碟\自製版子\holtek\GitHub\HT_USB_Project\HT66FB550_USB_Common\HT66FB550_UART.c"
  20  0000              @ISR_timer3_code .section at 36 'code'
  20  0000              IFDEF ISR_SYSTEM_STACK_BEFORE_2014_12_23
  20  0000              	mov _ISR_timer3fs[0],a
  20  0000              	mov a, bp
  20  0000              	mov _ISR_timer3fs[1],a
  20  0000              	jmp _ISR_timer3
  20  0000              @dummy36 proc
  20  0000              	call _ISR_timer3
  20  0000              @dummy36 endp
  20  0000              
  20  0000              _ISR_timer3 .section 'code'
  20  0000              _ISR_timer3 proc
  20  0000              public _ISR_timer3fs
  20  0000              local _ISR_timer3fs db 7 dup(?)
  20  0000              	mov a, status
  20  0000              	mov _ISR_timer3fs[2],a
  20  0000              	mov a,mp
  20  0000              	mov _ISR_timer3fs[3],a
  20  0000              	mov a,sbp
  20  0000              	mov _ISR_timer3fs[4],a
  20  0000              	mov a,tblp
  20  0000              	mov _ISR_timer3fs[5],a
  20  0000              	mov a,tbhp
  20  0000              	mov _ISR_timer3fs[6],a
  20  0000              ELSE
  20  0000  0080     E  	mov r1,a
  20  0001  0704        	mov a, bp
  20  0002  0080     E  	mov r2,a
  20  0003  2800     R  	jmp _ISR_timer3
  20  0004              @dummy36 endp
  20  0004              
  20  0000              _ISR_timer3 .section 'code'
  20  0000              _ISR_timer3 proc
  20  0000  070A        	mov a, status
  20  0001  0080     E  	mov r3,a
  20  0002  0703        	mov a,mp
  20  0003  0080     E  	mov r4,a
  20  0004  0701        	mov a,sbp
"File: HT66FB550_UART.c  Assembler  Version HGASM0202      Page 4

  20  0005  0080     E  	mov r5,a
  20  0006  0707        	mov a,tblp
  20  0007  0080     E  	mov r6,a
  20  0008  0709        	mov a,tbhp
  20  0009  0080     E  	mov r7,a
  20  000A              ENDIF
  21  000A              #line 21 "C:\Users\james\Google 雲端硬碟\自製版子\holtek\GitHub\HT_USB_Project\HT66FB550_USB_Common\HT66FB550_UART.c"
  21  000A  3B95        	snz [21].7
  21  000B  2800     R  	jmp _L10
  22  000C              #line 22 "C:\Users\james\Google 雲端硬碟\自製版子\holtek\GitHub\HT_USB_Project\HT66FB550_USB_Common\HT66FB550_UART.c"
  22  000C  3795        	clr [21].7
  23  000D              #line 23 "C:\Users\james\Google 雲端硬碟\自製版子\holtek\GitHub\HT_USB_Project\HT66FB550_USB_Common\HT66FB550_UART.c"
  23  000D  35DE        	clr [94].3
  24  000E              #line 24 "C:\Users\james\Google 雲端硬碟\自製版子\holtek\GitHub\HT_USB_Project\HT66FB550_USB_Common\HT66FB550_UART.c"
  24  000E  31DE        	set [94].3
  25  000F              #line 25 "C:\Users\james\Google 雲端硬碟\自製版子\holtek\GitHub\HT_USB_Project\HT66FB550_USB_Common\HT66FB550_UART.c"
  25  000F  2000     R  	call _UART_ISR
  25  0010              _L10:
  25  0010              IFDEF ISR_SYSTEM_STACK_BEFORE_2014_12_23
  25  0010              	mov a,_ISR_timer3fs[1]
  25  0010              	mov bp,a
  25  0010              	mov a,_ISR_timer3fs[2]
  25  0010              	mov status,a
  25  0010              	mov a,_ISR_timer3fs[3]
  25  0010              	mov mp,a
  25  0010              	mov a,_ISR_timer3fs[4]
  25  0010              	mov sbp,a
  25  0010              	mov a,_ISR_timer3fs[5]
  25  0010              	mov tblp,a
  25  0010              	mov a,_ISR_timer3fs[6]
  25  0010              	mov tbhp,a
  25  0010              	tabrdc acc
  25  0010              	mov a,_ISR_timer3fs[0]
  25  0010              ELSE
  25  0010  0700     E  	mov a,r2
  25  0011  0084        	mov bp,a
  25  0012  0700     E  	mov a,r3
  25  0013  008A        	mov status,a
  25  0014  0700     E  	mov a,r4
  25  0015  0083        	mov mp,a
  25  0016  0700     E  	mov a,r5
  25  0017  0081        	mov sbp,a
  25  0018  0700     E  	mov a,r6
  25  0019  0087        	mov tblp,a
  25  001A  0700     E  	mov a,r7
  25  001B  0089        	mov tbhp,a
  25  001C  1D05        	tabrdc acc
  25  001D  0700     E  	mov a,r1
  25  001E              ENDIF
  25  001E  0004        	reti
  25  001F              _ISR_timer3 endp
  25  001F              
  25  001F              #line 25 "C:\Users\james\Google 雲端硬碟\自製版子\holtek\GitHub\HT_USB_Project\HT66FB550_USB_Common\HT66FB550_UART.c"
  25  001F              #pragma debug scope 1 1
  25  001F              public _UART_Init
  25  001F              #pragma debug scope 4 1
  64  001F              #line 64 "C:\Users\james\Google 雲端硬碟\自製版子\holtek\GitHub\HT_USB_Project\HT66FB550_USB_Common\HT66FB550_UART.c"
  64  0000              _UART_Init .section 'code'
  64  0000              _UART_Init proc
  65  0000              #line 65 "C:\Users\james\Google 雲端硬碟\自製版子\holtek\GitHub\HT_USB_Project\HT66FB550_USB_Common\HT66FB550_UART.c"
"File: HT66FB550_UART.c  Assembler  Version HGASM0202      Page 5

  65  0000  0F10        	mov a,16
  65  0001  00DE        	mov [94],a
  66  0002              #line 66 "C:\Users\james\Google 雲端硬碟\自製版子\holtek\GitHub\HT_USB_Project\HT66FB550_USB_Common\HT66FB550_UART.c"
  66  0002  0FC0        	mov a,192
  66  0003  00DF        	mov [95],a
  67  0004              #line 67 "C:\Users\james\Google 雲端硬碟\自製版子\holtek\GitHub\HT_USB_Project\HT66FB550_USB_Common\HT66FB550_UART.c"
  67  0004  0FD8        	mov a,216
  67  0005  00E2        	mov [98],a
  67  0006  0F02        	mov a,2
  67  0007  00E3        	mov [99],a
  67  0008  0003        	ret
  67  0009              _UART_Init endp
  67  0009              #line 67 "C:\Users\james\Google 雲端硬碟\自製版子\holtek\GitHub\HT_USB_Project\HT66FB550_USB_Common\HT66FB550_UART.c"
  67  0009              #pragma debug scope 1 1
  67  0009              public _UART_Start
  67  0009              #pragma debug scope 5 1
  71  0009              #line 71 "C:\Users\james\Google 雲端硬碟\自製版子\holtek\GitHub\HT_USB_Project\HT66FB550_USB_Common\HT66FB550_UART.c"
  71  0000              _UART_Start .section 'code'
  71  0000              _UART_Start proc
  72  0000              #line 72 "C:\Users\james\Google 雲端硬碟\自製版子\holtek\GitHub\HT_USB_Project\HT66FB550_USB_Common\HT66FB550_UART.c"
  72  0000  1F00     R  	clr _uart_step[0]
  73  0001              #line 73 "C:\Users\james\Google 雲端硬碟\自製版子\holtek\GitHub\HT_USB_Project\HT66FB550_USB_Common\HT66FB550_UART.c"
  73  0001  0F01        	mov a,1
  73  0002  0080     R  	mov _uart_pin_buf[0],a
  74  0003              #line 74 "C:\Users\james\Google 雲端硬碟\自製版子\holtek\GitHub\HT_USB_Project\HT66FB550_USB_Common\HT66FB550_UART.c"
  74  0003  3092        	set [18].1
  75  0004              #line 75 "C:\Users\james\Google 雲端硬碟\自製版子\holtek\GitHub\HT_USB_Project\HT66FB550_USB_Common\HT66FB550_UART.c"
  75  0004  3195        	set [21].3
  76  0005              #line 76 "C:\Users\james\Google 雲端硬碟\自製版子\holtek\GitHub\HT_USB_Project\HT66FB550_USB_Common\HT66FB550_UART.c"
  76  0005  3010        	set [16].0
  77  0006              #line 77 "C:\Users\james\Google 雲端硬碟\自製版子\holtek\GitHub\HT_USB_Project\HT66FB550_USB_Common\HT66FB550_UART.c"
  77  0006  31DE        	set [94].3
  77  0007  0003        	ret
  77  0008              _UART_Start endp
  77  0008              #line 77 "C:\Users\james\Google 雲端硬碟\自製版子\holtek\GitHub\HT_USB_Project\HT66FB550_USB_Common\HT66FB550_UART.c"
  77  0008              #pragma debug scope 1 1
  17  0008              #line 17 "C:\Users\james\Google 雲端硬碟\自製版子\holtek\GitHub\HT_USB_Project\HT66FB550_USB_Common\HT66FB550_UART.c"
  17  0008              public _uart_pin_buf
  17  0000              @HCCINIT0 .section 'data'
  17  0000  00          _uart_pin_buf	db 0
  17  0001              #pragma debug variable 7 1 _uart_pin_buf "uart_pin_buf"
  17  0001              
  17  0000              @HCCINIT .section 'data'
  17  0000              #line 17 "C:\Users\james\Google 雲端硬碟\自製版子\holtek\GitHub\HT_USB_Project\HT66FB550_USB_Common\HT66FB550_UART.c"
  17  0000              public _uart_step
  17  0001              @HCCINIT0 .section 'data'
  17  0001  00          _uart_step	db 0
  17  0002              #pragma debug variable 7 1 _uart_step "uart_step"
  17  0002              
  17  0000              @HCCINIT .section 'data'
  17  0000              ___intc0 equ [010h]
  17  0000              #pragma debug struct_end
  17  0000              #pragma debug struct_end
  17  0000              #pragma debug union_end
  17  0000              #pragma debug union_end
  17  0000              #pragma debug variable 43 1 [010h] "__intc0" 1
  17  0000              ___intc2 equ [012h]
  17  0000              #pragma debug struct_end
  17  0000              #pragma debug struct_end
  17  0000              #pragma debug union_end
"File: HT66FB550_UART.c  Assembler  Version HGASM0202      Page 6

  17  0000              #pragma debug union_end
  17  0000              #pragma debug variable 45 1 [012h] "__intc2" 1
  17  0000              ___mfi1 equ [015h]
  17  0000              #pragma debug struct_end
  17  0000              #pragma debug struct_end
  17  0000              #pragma debug union_end
  17  0000              #pragma debug union_end
  17  0000              #pragma debug variable 47 1 [015h] "__mfi1" 1
  17  0000              ___pb equ [022h]
  17  0000              #pragma debug struct_end
  17  0000              #pragma debug struct_end
  17  0000              #pragma debug union_end
  17  0000              #pragma debug union_end
  17  0000              #pragma debug variable 49 1 [022h] "__pb" 1
  17  0000              ___tm3c0 equ [05eh]
  17  0000              #pragma debug struct_end
  17  0000              #pragma debug struct_end
  17  0000              #pragma debug union_end
  17  0000              #pragma debug union_end
  17  0000              #pragma debug variable 51 1 [05eh] "__tm3c0" 1
  17  0000              ___tm3c1 equ [05fh]
  17  0000              #pragma debug struct_end
  17  0000              #pragma debug struct_end
  17  0000              #pragma debug union_end
  17  0000              #pragma debug union_end
  17  0000              #pragma debug variable 53 1 [05fh] "__tm3c1" 1
  17  0000              ___tm3al equ [062h]
  17  0000              #pragma debug variable 8 1 [062h] "__tm3al" 1
  17  0000              ___tm3ah equ [063h]
  17  0000              #pragma debug variable 8 1 [063h] "__tm3ah" 1
  17  0000              IFDEF ISR_SYSTEM_STACK_BEFORE_2014_12_23
  17  0000              ELSE
  17  0000              extern r1:byte
  17  0000              extern r2:byte
  17  0000              extern r3:byte
  17  0000              extern r4:byte
  17  0000              extern r5:byte
  17  0000              extern r6:byte
  17  0000              extern r7:byte
  17  0000              ENDIF
  17  0000              
  17  0000              ; 
  17  0000              ; Generated by holtek-gcc v3.12, Mon May 04 21:00:05 2015
  17  0000              ; Rebuild 113
  17  0000              ; end of file


        0 Errors, 0